; Function Attrs: mustprogress uwtable
define hidden noundef range(i32 -100, 1) i32 @_ZN4ncnn7RMSNorm10load_modelERKNS_8ModelBinE(ptr noundef nonnull align 8 dereferenceable(296) %0, ptr noundef nonnull align 8 dereferenceable(8) %1) unnamed_addr #1 align 2 personality ptr @__gxx_personality_v0 {
  %3 = alloca %"class.ncnn::Mat", align 8
  %4 = getelementptr inbounds nuw i8, ptr %0, i64 216
  %5 = load i32, ptr %4, align 8, !tbaa !36
  %6 = icmp eq i32 %5, 0
  br i1 %6, label %108, label %7

7:                                                ; preds = %2
  call void @llvm.lifetime.start.p0(i64 72, ptr nonnull %3) #11
  %8 = getelementptr inbounds nuw i8, ptr %0, i64 208
  %9 = load i32, ptr %8, align 8, !tbaa !18
  %10 = load ptr, ptr %1, align 8, !tbaa !4
  %11 = getelementptr inbounds nuw i8, ptr %10, i64 16
  %12 = load ptr, ptr %11, align 8
  call void %12(ptr dead_on_unwind nonnull writable sret(%"class.ncnn::Mat") align 8 %3, ptr noundef nonnull align 8 dereferenceable(8) %1, i32 noundef %9, i32 noundef 1)
  %13 = getelementptr inbounds nuw i8, ptr %0, i64 224
  %14 = icmp eq ptr %13, %3
  %.phi.trans.insert = getelementptr inbounds nuw i8, ptr %3, i64 8
  %.pre = load ptr, ptr %.phi.trans.insert, align 8, !tbaa !7
  br i1 %14, label %_ZN4ncnn3MataSERKS0_.exit, label %15

15:                                               ; preds = %7
  %.not.i = icmp eq ptr %.pre, null
  br i1 %.not.i, label %18, label %16

16:                                               ; preds = %15
  %17 = atomicrmw add ptr %.pre, i32 1 acq_rel, align 4
  br label %18

18:                                               ; preds = %16, %15
  %19 = getelementptr inbounds nuw i8, ptr %0, i64 232
  %20 = load ptr, ptr %19, align 8, !tbaa !7
  %.not.i11 = icmp eq ptr %20, null
  br i1 %.not.i11, label %.noexc, label %21

21:                                               ; preds = %18
  %22 = atomicrmw add ptr %20, i32 -1 acq_rel, align 4
  %23 = icmp eq i32 %22, 1
  br i1 %23, label %24, label %.noexc

24:                                               ; preds = %21
  %25 = getelementptr inbounds nuw i8, ptr %0, i64 256
  %26 = load ptr, ptr %25, align 8, !tbaa !15
  %.not3.i12 = icmp eq ptr %26, null
  %27 = load ptr, ptr %13, align 8, !tbaa !16
  br i1 %.not3.i12, label %32, label %28

28:                                               ; preds = %24
  %29 = load ptr, ptr %26, align 8, !tbaa !4
  %30 = getelementptr inbounds nuw i8, ptr %29, i64 24
  %31 = load ptr, ptr %30, align 8
  invoke void %31(ptr noundef nonnull align 8 dereferenceable(8) %26, ptr noundef %27)
          to label %.noexc unwind label %89

32:                                               ; preds = %24
  %.not.i15 = icmp eq ptr %27, null
  br i1 %.not.i15, label %.noexc, label %33

33:                                               ; preds = %32
  call void @free(ptr noundef nonnull %27) #11
  br label %.noexc

.noexc:                                           ; preds = %21, %18, %28, %32, %33
  %34 = getelementptr inbounds nuw i8, ptr %0, i64 240
  %35 = getelementptr inbounds nuw i8, ptr %0, i64 248
  %36 = getelementptr inbounds nuw i8, ptr %0, i64 264
  %37 = getelementptr inbounds nuw i8, ptr %0, i64 268
  %38 = getelementptr inbounds nuw i8, ptr %0, i64 272
  %39 = getelementptr inbounds nuw i8, ptr %0, i64 276
  %40 = getelementptr inbounds nuw i8, ptr %0, i64 280
  %41 = getelementptr inbounds nuw i8, ptr %0, i64 288
  %42 = load ptr, ptr %3, align 8, !tbaa !16
  store ptr %42, ptr %13, align 8, !tbaa !16
  %43 = load ptr, ptr %.phi.trans.insert, align 8, !tbaa !7
  store ptr %43, ptr %19, align 8, !tbaa !7
  %44 = getelementptr inbounds nuw i8, ptr %3, i64 16
  %45 = load i64, ptr %44, align 8, !tbaa !37
  store i64 %45, ptr %34, align 8, !tbaa !37
  %46 = getelementptr inbounds nuw i8, ptr %3, i64 24
  %47 = load i32, ptr %46, align 8, !tbaa !38
  store i32 %47, ptr %35, align 8, !tbaa !38
  %48 = getelementptr inbounds nuw i8, ptr %3, i64 32
  %49 = load ptr, ptr %48, align 8, !tbaa !15
  %50 = getelementptr inbounds nuw i8, ptr %0, i64 256
  store ptr %49, ptr %50, align 8, !tbaa !15
  %51 = getelementptr inbounds nuw i8, ptr %3, i64 40
  %52 = load i32, ptr %51, align 8, !tbaa !39
  store i32 %52, ptr %36, align 8, !tbaa !39
  %53 = getelementptr inbounds nuw i8, ptr %3, i64 44
  %54 = load i32, ptr %53, align 4, !tbaa !40
  store i32 %54, ptr %37, align 4, !tbaa !40
  %55 = getelementptr inbounds nuw i8, ptr %3, i64 48
  %56 = load i32, ptr %55, align 8, !tbaa !41
  store i32 %56, ptr %38, align 8, !tbaa !41
  %57 = getelementptr inbounds nuw i8, ptr %3, i64 52
  %58 = load i32, ptr %57, align 4, !tbaa !42
  store i32 %58, ptr %39, align 4, !tbaa !42
  %59 = getelementptr inbounds nuw i8, ptr %3, i64 56
  %60 = load i32, ptr %59, align 8, !tbaa !43
  store i32 %60, ptr %40, align 8, !tbaa !43
  %61 = getelementptr inbounds nuw i8, ptr %3, i64 64
  %62 = load i64, ptr %61, align 8, !tbaa !17
  store i64 %62, ptr %41, align 8, !tbaa !17
  br label %_ZN4ncnn3MataSERKS0_.exit

_ZN4ncnn3MataSERKS0_.exit:                        ; preds = %7, %.noexc
  %63 = phi ptr [ %43, %.noexc ], [ %.pre, %7 ]
  %.not.i7 = icmp eq ptr %63, null
  br i1 %.not.i7, label %_ZN4ncnn3MatD2Ev.exit, label %64

64:                                               ; preds = %_ZN4ncnn3MataSERKS0_.exit
  %65 = atomicrmw add ptr %63, i32 -1 acq_rel, align 4
  %66 = icmp eq i32 %65, 1
  br i1 %66, label %67, label %_ZN4ncnn3MatD2Ev.exit

67:                                               ; preds = %64
  %68 = getelementptr inbounds nuw i8, ptr %3, i64 32
  %69 = load ptr, ptr %68, align 8, !tbaa !15
  %.not3.i8 = icmp eq ptr %69, null
  %70 = load ptr, ptr %3, align 8, !tbaa !16
  br i1 %.not3.i8, label %75, label %71

71:                                               ; preds = %67
  %72 = load ptr, ptr %69, align 8, !tbaa !4
  %73 = getelementptr inbounds nuw i8, ptr %72, i64 24
  %74 = load ptr, ptr %73, align 8
  invoke void %74(ptr noundef nonnull align 8 dereferenceable(8) %69, ptr noundef %70)
          to label %_ZN4ncnn3MatD2Ev.exit unwind label %77

75:                                               ; preds = %67
  %.not.i16 = icmp eq ptr %70, null
  br i1 %.not.i16, label %_ZN4ncnn3MatD2Ev.exit, label %76

76:                                               ; preds = %75
  call void @free(ptr noundef nonnull %70) #11
  br label %_ZN4ncnn3MatD2Ev.exit

77:                                               ; preds = %71
  %78 = landingpad { ptr, i32 }
          catch ptr null
  %79 = extractvalue { ptr, i32 } %78, 0
  call void @__clang_call_terminate(ptr %79) #15
  unreachable

_ZN4ncnn3MatD2Ev.exit:                            ; preds = %64, %_ZN4ncnn3MataSERKS0_.exit, %71, %75, %76
  call void @llvm.lifetime.end.p0(i64 72, ptr nonnull %3) #11
  %80 = load ptr, ptr %13, align 8, !tbaa !16
  %81 = icmp eq ptr %80, null
  br i1 %81, label %_ZNK4ncnn3Mat5emptyEv.exit.thread, label %_ZNK4ncnn3Mat5emptyEv.exit

_ZNK4ncnn3Mat5emptyEv.exit:                       ; preds = %_ZN4ncnn3MatD2Ev.exit
  %82 = getelementptr inbounds nuw i8, ptr %0, i64 288
  %83 = load i64, ptr %82, align 8, !tbaa !17
  %84 = getelementptr inbounds nuw i8, ptr %0, i64 280
  %85 = load i32, ptr %84, align 8, !tbaa !43
  %86 = sext i32 %85 to i64
  %87 = mul i64 %83, %86
  %.fr = freeze i64 %87
  %88 = icmp eq i64 %.fr, 0
  br i1 %88, label %_ZNK4ncnn3Mat5emptyEv.exit.thread, label %108

_ZNK4ncnn3Mat5emptyEv.exit.thread:                ; preds = %_ZN4ncnn3MatD2Ev.exit, %_ZNK4ncnn3Mat5emptyEv.exit
  br label %108

89:                                               ; preds = %28
  %90 = landingpad { ptr, i32 }
          cleanup
  %91 = load ptr, ptr %.phi.trans.insert, align 8, !tbaa !7
  %.not.i5 = icmp eq ptr %91, null
  br i1 %.not.i5, label %_ZN4ncnn3MatD2Ev.exit4, label %92

92:                                               ; preds = %89
  %93 = atomicrmw add ptr %91, i32 -1 acq_rel, align 4
  %94 = icmp eq i32 %93, 1
  br i1 %94, label %95, label %_ZN4ncnn3MatD2Ev.exit4

95:                                               ; preds = %92
  %96 = getelementptr inbounds nuw i8, ptr %3, i64 32
  %97 = load ptr, ptr %96, align 8, !tbaa !15
  %.not3.i = icmp eq ptr %97, null
  %98 = load ptr, ptr %3, align 8, !tbaa !16
  br i1 %.not3.i, label %103, label %99

99:                                               ; preds = %95
  %100 = load ptr, ptr %97, align 8, !tbaa !4
  %101 = getelementptr inbounds nuw i8, ptr %100, i64 24
  %102 = load ptr, ptr %101, align 8
  invoke void %102(ptr noundef nonnull align 8 dereferenceable(8) %97, ptr noundef %98)
          to label %_ZN4ncnn3MatD2Ev.exit4 unwind label %105

103:                                              ; preds = %95
  %.not.i18 = icmp eq ptr %98, null
  br i1 %.not.i18, label %_ZN4ncnn3MatD2Ev.exit4, label %104

104:                                              ; preds = %103
  call void @free(ptr noundef nonnull %98) #11
  br label %_ZN4ncnn3MatD2Ev.exit4

105:                                              ; preds = %99
  %106 = landingpad { ptr, i32 }
          catch ptr null
  %107 = extractvalue { ptr, i32 } %106, 0
  call void @__clang_call_terminate(ptr %107) #15
  unreachable

_ZN4ncnn3MatD2Ev.exit4:                           ; preds = %92, %89, %99, %103, %104
  call void @llvm.lifetime.end.p0(i64 72, ptr nonnull %3) #11
  resume { ptr, i32 } %90

108:                                              ; preds = %_ZNK4ncnn3Mat5emptyEv.exit.thread, %_ZNK4ncnn3Mat5emptyEv.exit, %2
  %.0 = phi i32 [ 0, %2 ], [ -100, %_ZNK4ncnn3Mat5emptyEv.exit.thread ], [ 0, %_ZNK4ncnn3Mat5emptyEv.exit ]
  ret i32 %.0
}